; ModuleID = 'source-C-CXX/33/1939.c'
source_filename = "source-C-CXX/33/1939.c"
target datalayout = "e-m:e-p270:32:32-p271:32:32-p272:64:64-i64:64-f80:128-n8:16:32:64-S128"
target triple = "x86_64-pc-linux-gnu"

@.str = private unnamed_addr constant [3 x i8] c"%d\00", align 1
@.str.1 = private unnamed_addr constant [11 x i8] c"%d*3+1=%d\0A\00", align 1
@.str.2 = private unnamed_addr constant [9 x i8] c"%d/2=%d\0A\00", align 1
@.str.3 = private unnamed_addr constant [4 x i8] c"End\00", align 1

; Function Attrs: nofree nounwind sspstrong uwtable
define dso_local i32 @main() local_unnamed_addr #0 {
  %1 = alloca i32, align 4
  %2 = bitcast i32* %1 to i8*
  call void @llvm.lifetime.start.p0i8(i64 4, i8* nonnull %2) #3
  %3 = call i32 (i8*, ...) @__isoc99_scanf(i8* getelementptr inbounds ([3 x i8], [3 x i8]* @.str, i64 0, i64 0), i32* nonnull %1)
  %4 = load i32, i32* %1, align 4, !tbaa !5
  %5 = icmp eq i32 %4, 1
  br i1 %5, label %35, label %9

6:                                                ; preds = %27, %13
  %7 = phi i32 [ %14, %13 ], [ %32, %27 ]
  %8 = icmp eq i32 %7, 1
  br i1 %8, label %35, label %9, !llvm.loop !9

9:                                                ; preds = %0, %6
  %10 = phi i32 [ %7, %6 ], [ %4, %0 ]
  %11 = srem i32 %10, 2
  %12 = icmp eq i32 %11, 1
  br i1 %12, label %17, label %13

13:                                               ; preds = %17, %9
  %14 = phi i32 [ %10, %9 ], [ %24, %17 ]
  %15 = and i32 %14, 1
  %16 = icmp eq i32 %15, 0
  br i1 %16, label %27, label %6

17:                                               ; preds = %9, %17
  %18 = phi i32 [ %24, %17 ], [ %10, %9 ]
  %19 = mul nsw i32 %18, 3
  %20 = add nsw i32 %19, 1
  %21 = call i32 (i8*, ...) @printf(i8* nonnull dereferenceable(1) getelementptr inbounds ([11 x i8], [11 x i8]* @.str.1, i64 0, i64 0), i32 %18, i32 %20)
  %22 = load i32, i32* %1, align 4, !tbaa !5
  %23 = mul nsw i32 %22, 3
  %24 = add nsw i32 %23, 1
  store i32 %24, i32* %1, align 4, !tbaa !5
  %25 = srem i32 %24, 2
  %26 = icmp eq i32 %25, 1
  br i1 %26, label %17, label %13, !llvm.loop !11

27:                                               ; preds = %13, %27
  %28 = phi i32 [ %32, %27 ], [ %14, %13 ]
  %29 = sdiv i32 %28, 2
  %30 = call i32 (i8*, ...) @printf(i8* nonnull dereferenceable(1) getelementptr inbounds ([9 x i8], [9 x i8]* @.str.2, i64 0, i64 0), i32 %28, i32 %29)
  %31 = load i32, i32* %1, align 4, !tbaa !5
  %32 = sdiv i32 %31, 2
  store i32 %32, i32* %1, align 4, !tbaa !5
  %33 = and i32 %32, 1
  %34 = icmp eq i32 %33, 0
  br i1 %34, label %27, label %6, !llvm.loop !12

35:                                               ; preds = %6, %0
  %36 = call i32 (i8*, ...) @printf(i8* nonnull dereferenceable(1) getelementptr inbounds ([4 x i8], [4 x i8]* @.str.3, i64 0, i64 0))
  call void @llvm.lifetime.end.p0i8(i64 4, i8* nonnull %2) #3
  ret i32 0
}

; Function Attrs: argmemonly mustprogress nofree nosync nounwind willreturn
declare void @llvm.lifetime.start.p0i8(i64 immarg, i8* nocapture) #1

; Function Attrs: nofree nounwind
declare noundef i32 @__isoc99_scanf(i8* nocapture noundef readonly, ...) local_unnamed_addr #2

; Function Attrs: nofree nounwind
declare noundef i32 @printf(i8* nocapture noundef readonly, ...) local_unnamed_addr #2

; Function Attrs: argmemonly mustprogress nofree nosync nounwind willreturn
declare void @llvm.lifetime.end.p0i8(i64 immarg, i8* nocapture) #1


!llvm.module.flags = !{!0, !1, !2, !3}
!llvm.ident = !{!4}

!0 = !{i32 1, !"wchar_size", i32 4}
!1 = !{i32 7, !"PIC Level", i32 2}
!2 = !{i32 7, !"PIE Level", i32 2}
!3 = !{i32 7, !"uwtable", i32 1}
!4 = !{!"clang version 13.0.0"}
!5 = !{!6, !6, i64 0}
!6 = !{!"int", !7, i64 0}
!7 = !{!"omnipotent char", !8, i64 0}
!8 = !{!"Simple C/C++ TBAA"}
!9 = distinct !{!9, !10}
!10 = !{!"llvm.loop.mustprogress"}
!11 = distinct !{!11, !10}
!12 = distinct !{!12, !10}
